target datalayout = "e-m:e-p270:32:32-p271:32:32-p272:64:64-i64:64-i128:128-f80:128-n8:16:32:64-S128"
target triple = "x86_64-pc-linux-gnu"

; Function Attrs: inlinehint nounwind uwtable
define internal i32 @Abc_Var2Lit(i32 noundef %0, i32 noundef %1) #2 {
  %3 = alloca i32, align 4
  %4 = alloca i32, align 4
  store i32 %0, ptr %3, align 4, !tbaa !8
  store i32 %1, ptr %4, align 4, !tbaa !8
  %5 = load i32, ptr %3, align 4, !tbaa !8
  %6 = load i32, ptr %3, align 4, !tbaa !8
  %7 = add nsw i32 %5, %6
  %8 = load i32, ptr %4, align 4, !tbaa !8
  %9 = add nsw i32 %7, %8
  ret i32 %9
}

; Function Attrs: inlinehint nounwind uwtable
define internal i32 @Bmc_MeshVarValue(ptr noundef %0, i32 noundef %1) #2 {
  %3 = alloca ptr, align 8
  %4 = alloca i32, align 4
  store ptr %0, ptr %3, align 8, !tbaa !3
  store i32 %1, ptr %4, align 4, !tbaa !8
  %5 = load ptr, ptr %3, align 8, !tbaa !3
  %6 = load i32, ptr %4, align 4, !tbaa !8
  %7 = call signext i8 @satoko_var_polarity(ptr noundef %5, i32 noundef %6)
  %8 = sext i8 %7 to i32
  %9 = icmp eq i32 %8, 0
  %10 = zext i1 %9 to i32
  ret i32 %10
}

; Function Attrs: nounwind uwtable
define i32 @Bmc_MeshAddOneHotness(ptr noundef %0, i32 noundef %1, i32 noundef %2) #0 {
  %4 = alloca i32, align 4
  %5 = alloca ptr, align 8
  %6 = alloca i32, align 4
  %7 = alloca i32, align 4
  %8 = alloca i32, align 4
  %9 = alloca i32, align 4
  %10 = alloca i32, align 4
  %11 = alloca [100 x i32], align 16
  %12 = alloca i32, align 4
  %13 = alloca i32, align 4
  %14 = alloca i32, align 4
  %15 = alloca [2 x i32], align 4
  %16 = alloca i32, align 4
  store ptr %0, ptr %5, align 8, !tbaa !3
  store i32 %1, ptr %6, align 4, !tbaa !8
  store i32 %2, ptr %7, align 4, !tbaa !8
  call void @llvm.lifetime.start.p0(i64 4, ptr %8) #9
  call void @llvm.lifetime.start.p0(i64 4, ptr %9) #9
  call void @llvm.lifetime.start.p0(i64 4, ptr %10) #9
  call void @llvm.lifetime.start.p0(i64 400, ptr %11) #9
  call void @llvm.lifetime.start.p0(i64 4, ptr %12) #9
  store i32 0, ptr %12, align 4, !tbaa !8
  call void @llvm.lifetime.start.p0(i64 4, ptr %13) #9
  store i32 0, ptr %13, align 4, !tbaa !8
  %17 = load i32, ptr %6, align 4, !tbaa !8
  store i32 %17, ptr %10, align 4, !tbaa !8
  br label %18

18:                                               ; preds = %34, %3
  %19 = load i32, ptr %10, align 4, !tbaa !8
  %20 = load i32, ptr %7, align 4, !tbaa !8
  %21 = icmp slt i32 %19, %20
  br i1 %21, label %22, label %37

22:                                               ; preds = %18
  %23 = load ptr, ptr %5, align 8, !tbaa !3
  %24 = load i32, ptr %10, align 4, !tbaa !8
  %25 = call i32 @Bmc_MeshVarValue(ptr noundef %23, i32 noundef %24)
  %26 = icmp ne i32 %25, 0
  br i1 %26, label %27, label %33

27:                                               ; preds = %22
  %28 = load i32, ptr %10, align 4, !tbaa !8
  %29 = load i32, ptr %12, align 4, !tbaa !8
  %30 = add nsw i32 %29, 1
  store i32 %30, ptr %12, align 4, !tbaa !8
  %31 = sext i32 %29 to i64
  %32 = getelementptr inbounds [100 x i32], ptr %11, i64 0, i64 %31
  store i32 %28, ptr %32, align 4, !tbaa !8
  br label %33

33:                                               ; preds = %27, %22
  br label %34

34:                                               ; preds = %33
  %35 = load i32, ptr %10, align 4, !tbaa !8
  %36 = add nsw i32 %35, 1
  store i32 %36, ptr %10, align 4, !tbaa !8
  br label %18, !llvm.loop !10

37:                                               ; preds = %18
  %38 = load i32, ptr %12, align 4, !tbaa !8
  %39 = icmp sle i32 %38, 1
  br i1 %39, label %40, label %41

40:                                               ; preds = %37
  store i32 0, ptr %4, align 4
  store i32 1, ptr %14, align 4
  br label %80

41:                                               ; preds = %37
  store i32 0, ptr %8, align 4, !tbaa !8
  br label %42

42:                                               ; preds = %75, %41
  %43 = load i32, ptr %8, align 4, !tbaa !8
  %44 = load i32, ptr %12, align 4, !tbaa !8
  %45 = icmp slt i32 %43, %44
  br i1 %45, label %46, label %78

46:                                               ; preds = %42
  %47 = load i32, ptr %8, align 4, !tbaa !8
  %48 = add nsw i32 %47, 1
  store i32 %48, ptr %9, align 4, !tbaa !8
  br label %49

49:                                               ; preds = %71, %46
  %50 = load i32, ptr %9, align 4, !tbaa !8
  %51 = load i32, ptr %12, align 4, !tbaa !8
  %52 = icmp slt i32 %50, %51
  br i1 %52, label %53, label %74

53:                                               ; preds = %49
  call void @llvm.lifetime.start.p0(i64 8, ptr %15) #9
  call void @llvm.lifetime.start.p0(i64 4, ptr %16) #9
  %54 = load i32, ptr %8, align 4, !tbaa !8
  %55 = sext i32 %54 to i64
  %56 = getelementptr inbounds [100 x i32], ptr %11, i64 0, i64 %55
  %57 = load i32, ptr %56, align 4, !tbaa !8
  %58 = call i32 @Abc_Var2Lit(i32 noundef %57, i32 noundef 1)
  %59 = getelementptr inbounds [2 x i32], ptr %15, i64 0, i64 0
  store i32 %58, ptr %59, align 4, !tbaa !8
  %60 = load i32, ptr %9, align 4, !tbaa !8
  %61 = sext i32 %60 to i64
  %62 = getelementptr inbounds [100 x i32], ptr %11, i64 0, i64 %61
  %63 = load i32, ptr %62, align 4, !tbaa !8
  %64 = call i32 @Abc_Var2Lit(i32 noundef %63, i32 noundef 1)
  %65 = getelementptr inbounds [2 x i32], ptr %15, i64 0, i64 1
  store i32 %64, ptr %65, align 4, !tbaa !8
  %66 = load ptr, ptr %5, align 8, !tbaa !3
  %67 = getelementptr inbounds [2 x i32], ptr %15, i64 0, i64 0
  %68 = call i32 @satoko_add_clause(ptr noundef %66, ptr noundef %67, i32 noundef 2)
  store i32 %68, ptr %16, align 4, !tbaa !8
  %69 = load i32, ptr %13, align 4, !tbaa !8
  %70 = add nsw i32 %69, 1
  store i32 %70, ptr %13, align 4, !tbaa !8
  call void @llvm.lifetime.end.p0(i64 4, ptr %16) #9
  call void @llvm.lifetime.end.p0(i64 8, ptr %15) #9
  br label %71

71:                                               ; preds = %53
  %72 = load i32, ptr %9, align 4, !tbaa !8
  %73 = add nsw i32 %72, 1
  store i32 %73, ptr %9, align 4, !tbaa !8
  br label %49, !llvm.loop !12

74:                                               ; preds = %49
  br label %75

75:                                               ; preds = %74
  %76 = load i32, ptr %8, align 4, !tbaa !8
  %77 = add nsw i32 %76, 1
  store i32 %77, ptr %8, align 4, !tbaa !8
  br label %42, !llvm.loop !13

78:                                               ; preds = %42
  %79 = load i32, ptr %13, align 4, !tbaa !8
  store i32 %79, ptr %4, align 4
  store i32 1, ptr %14, align 4
  br label %80

80:                                               ; preds = %78, %40
  call void @llvm.lifetime.end.p0(i64 4, ptr %13) #9
  call void @llvm.lifetime.end.p0(i64 4, ptr %12) #9
  call void @llvm.lifetime.end.p0(i64 400, ptr %11) #9
  call void @llvm.lifetime.end.p0(i64 4, ptr %10) #9
  call void @llvm.lifetime.end.p0(i64 4, ptr %9) #9
  call void @llvm.lifetime.end.p0(i64 4, ptr %8) #9
  %81 = load i32, ptr %4, align 4
  ret i32 %81
}