; Function Attrs: nounwind uwtable
define i32 @Bmc_MeshAddOneHotness(ptr noundef %0, i32 noundef %1, i32 noundef %2) local_unnamed_addr #0 {
  %4 = alloca [100 x i32], align 16
  %5 = alloca [2 x i32], align 4
  call void @llvm.lifetime.start.p0(i64 400, ptr nonnull %4) #11
  %6 = icmp slt i32 %1, %2
  br i1 %6, label %.lr.ph, label %.loopexit27

.lr.ph:                                           ; preds = %3, %12
  %.02229 = phi i32 [ %.123, %12 ], [ 0, %3 ]
  %.02428 = phi i32 [ %13, %12 ], [ %1, %3 ]
  %7 = tail call signext i8 @satoko_var_polarity(ptr noundef %0, i32 noundef %.02428) #11
  %.not = icmp eq i8 %7, 0
  br i1 %.not, label %8, label %12

8:                                                ; preds = %.lr.ph
  %9 = add nsw i32 %.02229, 1
  %10 = sext i32 %.02229 to i64
  %11 = getelementptr inbounds [100 x i32], ptr %4, i64 0, i64 %10
  store i32 %.02428, ptr %11, align 4, !tbaa !3
  br label %12

12:                                               ; preds = %.lr.ph, %8
  %.123 = phi i32 [ %9, %8 ], [ %.02229, %.lr.ph ]
  %13 = add i32 %.02428, 1
  %exitcond.not = icmp eq i32 %13, %2
  br i1 %exitcond.not, label %._crit_edge, label %.lr.ph, !llvm.loop !7

._crit_edge:                                      ; preds = %12
  %14 = icmp slt i32 %.123, 2
  br i1 %14, label %.loopexit27, label %.preheader

.preheader:                                       ; preds = %._crit_edge
  %15 = getelementptr inbounds nuw i8, ptr %5, i64 4
  %16 = zext nneg i32 %.123 to i64
  %wide.trip.count46 = zext nneg i32 %.123 to i64
  br label %18

.loopexit.loopexit:                               ; preds = %24
  %17 = add i32 %.02136, %indvars.iv39
  br label %.loopexit

.loopexit:                                        ; preds = %.loopexit.loopexit, %18
  %.1.lcssa = phi i32 [ %.02136, %18 ], [ %17, %.loopexit.loopexit ]
  %indvars.iv.next = add nuw nsw i64 %indvars.iv, 1
  %exitcond47.not = icmp eq i64 %indvars.iv.next44, %wide.trip.count46
  br i1 %exitcond47.not, label %.loopexit27, label %18, !llvm.loop !9

18:                                               ; preds = %.preheader, %.loopexit
  %indvars.iv43 = phi i64 [ 0, %.preheader ], [ %indvars.iv.next44, %.loopexit ]
  %indvars.iv39.in = phi i32 [ %.123, %.preheader ], [ %indvars.iv39, %.loopexit ]
  %indvars.iv = phi i64 [ 1, %.preheader ], [ %indvars.iv.next, %.loopexit ]
  %.02136 = phi i32 [ 0, %.preheader ], [ %.1.lcssa, %.loopexit ]
  %indvars.iv39 = add i32 %indvars.iv39.in, -1
  %indvars.iv.next44 = add nuw nsw i64 %indvars.iv43, 1
  %19 = icmp samesign ult i64 %indvars.iv.next44, %16
  br i1 %19, label %.lr.ph33, label %.loopexit

.lr.ph33:                                         ; preds = %18
  %20 = getelementptr inbounds nuw [100 x i32], ptr %4, i64 0, i64 %indvars.iv43
  %21 = load i32, ptr %20, align 4, !tbaa !3
  %22 = shl nsw i32 %21, 1
  %23 = or disjoint i32 %22, 1
  br label %24

24:                                               ; preds = %.lr.ph33, %24
  %indvars.iv37 = phi i64 [ %indvars.iv, %.lr.ph33 ], [ %indvars.iv.next38, %24 ]
  call void @llvm.lifetime.start.p0(i64 8, ptr nonnull %5) #11
  store i32 %23, ptr %5, align 4, !tbaa !3
  %25 = getelementptr inbounds nuw [100 x i32], ptr %4, i64 0, i64 %indvars.iv37
  %26 = load i32, ptr %25, align 4, !tbaa !3
  %27 = shl nsw i32 %26, 1
  %28 = or disjoint i32 %27, 1
  store i32 %28, ptr %15, align 4, !tbaa !3
  %29 = call i32 @satoko_add_clause(ptr noundef %0, ptr noundef nonnull %5, i32 noundef 2) #11
  call void @llvm.lifetime.end.p0(i64 8, ptr nonnull %5) #11
  %indvars.iv.next38 = add nuw nsw i64 %indvars.iv37, 1
  %exitcond42.not = icmp eq i64 %indvars.iv.next38, %wide.trip.count46
  br i1 %exitcond42.not, label %.loopexit.loopexit, label %24, !llvm.loop !10

.loopexit27:                                      ; preds = %.loopexit, %3, %._crit_edge
  %.0 = phi i32 [ 0, %._crit_edge ], [ 0, %3 ], [ %.1.lcssa, %.loopexit ]
  call void @llvm.lifetime.end.p0(i64 400, ptr nonnull %4) #11
  ret i32 %.0
}